target datalayout = "e-m:e-p270:32:32-p271:32:32-p272:64:64-i64:64-i128:128-f80:128-n8:16:32:64-S128"
target triple = "x86_64-pc-linux-gnu"

%class.PhaseOutput = type <{ %class.Phase, %class.CodeBuffer, i32, [4 x i8], %class.ExceptionHandlerTable, %class.ImplicitExceptionTable, %class.C2CodeStubList, ptr, ptr, ptr, i32, i8, [3 x i8], i32, %class.CodeOffsets, i32, ptr, i32, i32, %class.ConstantTable, %class.BufferSizingData, ptr, i32, [4 x i8] }>
%class.Phase = type { i32, ptr }
%class.CodeBuffer = type { ptr, %class.CodeSection, %class.CodeSection, %class.CodeSection, ptr, ptr, ptr, i32, ptr, %class.OopRecorder, ptr, ptr, ptr, ptr, ptr, i8, i32 }
%class.CodeSection = type { ptr, ptr, ptr, ptr, ptr, ptr, ptr, ptr, i8, i8, i32, i8, ptr }
%class.OopRecorder = type { %class.ValueRecorder, %class.ValueRecorder.0, ptr }
%class.ValueRecorder = type <{ ptr, ptr, ptr, ptr, i8, [7 x i8] }>
%class.ValueRecorder.0 = type <{ ptr, ptr, ptr, ptr, i8, [7 x i8] }>
%class.ExceptionHandlerTable = type <{ ptr, i32, i32, %class.ReallocMark, [7 x i8] }>
%class.ReallocMark = type { i8 }
%class.ImplicitExceptionTable = type <{ i32, i32, ptr, %class.ReallocMark, [7 x i8] }>
%class.C2CodeStubList = type { %class.GrowableArray }
%class.GrowableArray = type { %class.GrowableArrayWithAllocator, %class.GrowableArrayMetadata }
%class.GrowableArrayWithAllocator = type { %class.GrowableArrayView }
%class.GrowableArrayView = type { %class.GrowableArrayBase, ptr }
%class.GrowableArrayBase = type { i32, i32 }
%class.GrowableArrayMetadata = type { i64 }
%class.CodeOffsets = type { [8 x i32] }
%class.ConstantTable = type <{ %class.GrowableArray.2, i32, i32, i32, [4 x i8] }>
%class.GrowableArray.2 = type { %class.GrowableArrayWithAllocator.3, %class.GrowableArrayMetadata }
%class.GrowableArrayWithAllocator.3 = type { %class.GrowableArrayView.4 }
%class.GrowableArrayView.4 = type { %class.GrowableArrayBase, ptr }
%class.BufferSizingData = type { i32, i32, i32, i32 }
%class.Node = type <{ ptr, ptr, ptr, i32, i32, i32, i32, i32, i32, i32, [4 x i8] }>
%class.Bundle = type { [3 x i8], i8 }

; Function Attrs: mustprogress nounwind uwtable
define linkonce_odr hidden noundef zeroext i1 @_ZNK6Bundle13starts_bundleEv(ptr noundef nonnull align 4 dereferenceable(3) %0) #1 comdat align 2 {
  %2 = alloca ptr, align 8
  store ptr %0, ptr %2, align 8
  %3 = load ptr, ptr %2, align 8
  %4 = load i24, ptr %3, align 4
  %5 = lshr i24 %4, 3
  %6 = and i24 %5, 1
  %7 = zext i24 %6 to i32
  %8 = icmp ne i32 %7, 0
  ret i1 %8
}

; Function Attrs: mustprogress nounwind uwtable
define hidden noundef zeroext i1 @_ZNK11PhaseOutput13starts_bundleEPK4Node(ptr noundef nonnull align 8 dereferenceable(700) %0, ptr noundef %1) #1 align 2 {
  %3 = alloca ptr, align 8
  %4 = alloca ptr, align 8
  store ptr %0, ptr %3, align 8
  store ptr %1, ptr %4, align 8
  %5 = load ptr, ptr %3, align 8
  %6 = getelementptr inbounds %class.PhaseOutput, ptr %5, i32 0, i32 15
  %7 = load i32, ptr %6, align 4
  %8 = load ptr, ptr %4, align 8
  %9 = getelementptr inbounds %class.Node, ptr %8, i32 0, i32 7
  %10 = load i32, ptr %9, align 8
  %11 = icmp ugt i32 %7, %10
  br i1 %11, label %12, label %21

12:                                               ; preds = %2
  %13 = getelementptr inbounds %class.PhaseOutput, ptr %5, i32 0, i32 16
  %14 = load ptr, ptr %13, align 8
  %15 = load ptr, ptr %4, align 8
  %16 = getelementptr inbounds %class.Node, ptr %15, i32 0, i32 7
  %17 = load i32, ptr %16, align 8
  %18 = zext i32 %17 to i64
  %19 = getelementptr inbounds %class.Bundle, ptr %14, i64 %18
  %20 = call noundef zeroext i1 @_ZNK6Bundle13starts_bundleEv(ptr noundef nonnull align 4 dereferenceable(3) %19)
  br label %21

21:                                               ; preds = %12, %2
  %22 = phi i1 [ false, %2 ], [ %20, %12 ]
  ret i1 %22
}