; Function Attrs: mustprogress nofree norecurse nosync nounwind willreturn memory(read, inaccessiblemem: none) uwtable
define hidden noundef zeroext i1 @_ZNK11PhaseOutput13starts_bundleEPK4Node(ptr nocapture noundef nonnull readonly align 8 dereferenceable(700) %0, ptr nocapture noundef readonly %1) local_unnamed_addr #4 align 2 {
  %3 = getelementptr inbounds i8, ptr %0, i64 612
  %4 = load i32, ptr %3, align 4
  %5 = getelementptr inbounds i8, ptr %1, i64 40
  %6 = load i32, ptr %5, align 8
  %7 = icmp ugt i32 %4, %6
  br i1 %7, label %8, label %16

8:                                                ; preds = %2
  %9 = getelementptr inbounds i8, ptr %0, i64 616
  %10 = load ptr, ptr %9, align 8
  %11 = zext i32 %6 to i64
  %12 = getelementptr inbounds %class.Bundle, ptr %10, i64 %11
  %13 = load i24, ptr %12, align 4
  %14 = and i24 %13, 8
  %15 = icmp ne i24 %14, 0
  br label %16

16:                                               ; preds = %8, %2
  %17 = phi i1 [ false, %2 ], [ %15, %8 ]
  ret i1 %17
}